(dp0
VServer
p1
Vcmsweb.cern.ch
p2
sVPort
p3
V
p4
sVRequestName
p5
V250917_135034:tdeandra_crab_BPH_NanoAOD_MC_Run2022C_2
p6
sVvoRole
p7
VNULL
p8
sVvoGroup
p9
g4
sVinstance
p10
Vprod
p11
sVOriginalConfig
p12
ccopy_reg
_reconstructor
p13
(cWMCore.Configuration
Configuration
p14
c__builtin__
object
p15
Ntp16
Rp17
(dp18
V_internal_sections
p19
(lp20
VGeneral
p21
aVJobType
p22
aVData
p23
aVSite
p24
aVUser
p25
aVDebug
p26
asg21
g13
(cWMCore.Configuration
ConfigSection
p27
g15
Ntp28
Rp29
(dp30
V_internal_documentation
p31
g4
sV_internal_name
p32
g21
sV_internal_settings
p33
c__builtin__
set
p34
((lp35
VtransferOutputs
p36
aVworkArea
p37
aVtransferLogs
p38
aVrequestName
p39
atp40
Rp41
sV_internal_docstrings
p42
(dp43
sV_internal_children
p44
g34
((lp45
tp46
Rp47
sV_internal_parent_ref
p48
NsV_internal_skipChecks
p49
I00
sg39
VBPH_NanoAOD_MC_Run2022C_2
p50
sg37
Vcrab_projects
p51
sg36
I01
sg38
I01
sbsg22
g13
(g27
g15
Ntp52
Rp53
(dp54
g31
g4
sg32
g22
sg33
g34
((lp55
VmaxMemoryMB
p56
aVsendExternalFolder
p57
aVpsetName
p58
aVnumCores
p59
aVpluginName
p60
atp61
Rp62
sg42
(dp63
sg44
g34
((lp64
tp65
Rp66
sg48
Nsg49
I00
sg60
VAnalysis
p67
sg58
V../BPH_MC.py
p68
sg59
I4
sg56
I4000
sg57
I01
sbsg23
g13
(g27
g15
Ntp69
Rp70
(dp71
g31
g4
sg32
g23
sg33
g34
((lp72
Vpublication
p73
aVsplitting
p74
aVinputDBS
p75
aVoutputDatasetTag
p76
aVinputDataset
p77
aVoutLFNDirBase
p78
aVunitsPerJob
p79
atp80
Rp81
sg42
(dp82
sg44
g34
((lp83
tp84
Rp85
sg48
Nsg49
I00
sg79
I40
sg77
V/BdToKstarMuMu_KplusPiminusFilter_SoftQCDnonD_TuneCP5_13p6TeV_pythia8-evtgen/Run3Summer22DRPremix-rndm_124X_mcRun3_2022_realistic_v12-v2/AODSIM
p86
sg75
Vglobal
p87
sg74
VLumiBased
p88
sg78
V/store/user/tdeandra/
p89
sg73
I00
sg76
VBPH_NanoAOD_Run2022C_MC
p90
sbsg24
g13
(g27
g15
Ntp91
Rp92
(dp93
g31
g4
sg32
g24
sg33
g34
((lp94
VstorageSite
p95
atp96
Rp97
sg42
(dp98
sg44
g34
((lp99
tp100
Rp101
sg48
Nsg49
I00
sg95
VT3_CH_CERNBOX
p102
sbsg25
g13
(g27
g15
Ntp103
Rp104
(dp105
g31
g4
sg32
g25
sg33
g34
((lp106
tp107
Rp108
sg42
(dp109
sg44
g34
((lp110
tp111
Rp112
sg48
Nsg49
I00
sbsg26
g13
(g27
g15
Ntp113
Rp114
(dp115
g31
g4
sg32
g26
sg33
g34
((lp116
tp117
Rp118
sg42
(dp119
sg44
g34
((lp120
tp121
Rp122
sg48
Nsg49
I00
sbsbs.