(dp0
VServer
p1
Vcmsweb.cern.ch
p2
sVPort
p3
V
p4
sVRequestName
p5
V251125_201756:tdeandra_crab_BPH_NanoAOD_Data_Run2022C_6
p6
sVvoRole
p7
VNULL
p8
sVvoGroup
p9
g4
sVinstance
p10
Vprod
p11
sVOriginalConfig
p12
ccopy_reg
_reconstructor
p13
(cWMCore.Configuration
Configuration
p14
c__builtin__
object
p15
Ntp16
Rp17
(dp18
V_internal_sections
p19
(lp20
VGeneral
p21
aVJobType
p22
aVData
p23
aVSite
p24
aVUser
p25
aVDebug
p26
asg21
g13
(cWMCore.Configuration
ConfigSection
p27
g15
Ntp28
Rp29
(dp30
V_internal_documentation
p31
g4
sV_internal_name
p32
g21
sV_internal_settings
p33
c__builtin__
set
p34
((lp35
VrequestName
p36
aVtransferOutputs
p37
aVworkArea
p38
aVtransferLogs
p39
atp40
Rp41
sV_internal_docstrings
p42
(dp43
sV_internal_children
p44
g34
((lp45
tp46
Rp47
sV_internal_parent_ref
p48
NsV_internal_skipChecks
p49
I00
sg36
VBPH_NanoAOD_Data_Run2022C_6
p50
sg38
Vcrab_projects
p51
sg37
I01
sg39
I01
sbsg22
g13
(g27
g15
Ntp52
Rp53
(dp54
g31
g4
sg32
g22
sg33
g34
((lp55
VsendExternalFolder
p56
aVnumCores
p57
aVpluginName
p58
aVmaxMemoryMB
p59
aVpsetName
p60
atp61
Rp62
sg42
(dp63
sg44
g34
((lp64
tp65
Rp66
sg48
Nsg49
I00
sg58
VAnalysis
p67
sg60
V../BPH_Data.py
p68
sg57
I4
sg59
I4000
sg56
I01
sbsg23
g13
(g27
g15
Ntp69
Rp70
(dp71
g31
g4
sg32
g23
sg33
g34
((lp72
VinputDBS
p73
aVinputDataset
p74
aVsplitting
p75
aVpublication
p76
aVunitsPerJob
p77
aVoutputDatasetTag
p78
aVlumiMask
p79
atp80
Rp81
sg42
(dp82
sg44
g34
((lp83
tp84
Rp85
sg48
Nsg49
I00
sg77
I40
sg74
V/ParkingDoubleMuonLowMass6/Run2022C-PromptReco-v1/MINIAOD
p86
sg73
Vglobal
p87
sg75
VLumiBased
p88
sg76
I00
sg78
VBPH_NanoAOD_Run2022C
p89
sg79
Vhttps://cms-service-dqmdc.web.cern.ch/CAF/certification/Collisions22/Cert_Collisions2022_eraC_355862_357482_Golden.json
p90
sbsg24
g13
(g27
g15
Ntp91
Rp92
(dp93
g31
g4
sg32
g24
sg33
g34
((lp94
VstorageSite
p95
atp96
Rp97
sg42
(dp98
sg44
g34
((lp99
tp100
Rp101
sg48
Nsg49
I00
sg95
VT2_BR_UERJ
p102
sbsg25
g13
(g27
g15
Ntp103
Rp104
(dp105
g31
g4
sg32
g25
sg33
g34
((lp106
tp107
Rp108
sg42
(dp109
sg44
g34
((lp110
tp111
Rp112
sg48
Nsg49
I00
sbsg26
g13
(g27
g15
Ntp113
Rp114
(dp115
g31
g4
sg32
g26
sg33
g34
((lp116
tp117
Rp118
sg42
(dp119
sg44
g34
((lp120
tp121
Rp122
sg48
Nsg49
I00
sbsbs.