(dp0
VServer
p1
Vcmsweb.cern.ch
p2
sVPort
p3
V
p4
sVRequestName
p5
V250916_145116:tdeandra_crab_BPH_NanoAOD_Data_Run2022C_2
p6
sVvoRole
p7
VNULL
p8
sVvoGroup
p9
g4
sVinstance
p10
Vprod
p11
sVOriginalConfig
p12
ccopy_reg
_reconstructor
p13
(cWMCore.Configuration
Configuration
p14
c__builtin__
object
p15
Ntp16
Rp17
(dp18
V_internal_sections
p19
(lp20
VGeneral
p21
aVJobType
p22
aVData
p23
aVSite
p24
aVUser
p25
aVDebug
p26
asg21
g13
(cWMCore.Configuration
ConfigSection
p27
g15
Ntp28
Rp29
(dp30
V_internal_documentation
p31
g4
sV_internal_name
p32
g21
sV_internal_settings
p33
c__builtin__
set
p34
((lp35
VtransferLogs
p36
aVworkArea
p37
aVrequestName
p38
aVtransferOutputs
p39
atp40
Rp41
sV_internal_docstrings
p42
(dp43
sV_internal_children
p44
g34
((lp45
tp46
Rp47
sV_internal_parent_ref
p48
NsV_internal_skipChecks
p49
I00
sg38
VBPH_NanoAOD_Data_Run2022C_2
p50
sg37
Vcrab_projects
p51
sg39
I01
sg36
I01
sbsg22
g13
(g27
g15
Ntp52
Rp53
(dp54
g31
g4
sg32
g22
sg33
g34
((lp55
VpluginName
p56
aVpsetName
p57
aVmaxMemoryMB
p58
aVsendExternalFolder
p59
aVnumCores
p60
atp61
Rp62
sg42
(dp63
sg44
g34
((lp64
tp65
Rp66
sg48
Nsg49
I00
sg56
VAnalysis
p67
sg57
V../BPH_Data.py
p68
sg60
I4
sg58
I4000
sg59
I01
sbsg23
g13
(g27
g15
Ntp69
Rp70
(dp71
g31
g4
sg32
g23
sg33
g34
((lp72
Vpublication
p73
aVlumiMask
p74
aVinputDBS
p75
aVsplitting
p76
aVinputDataset
p77
aVoutputDatasetTag
p78
aVunitsPerJob
p79
aVoutLFNDirBase
p80
atp81
Rp82
sg42
(dp83
sg44
g34
((lp84
tp85
Rp86
sg48
Nsg49
I00
sg79
I40
sg77
V/ParkingDoubleMuonLowMass0/Run2022C-PromptReco-v1/MINIAOD
p87
sg75
Vglobal
p88
sg76
VLumiBased
p89
sg80
V/store/user/tdeandra/
p90
sg73
I00
sg78
VBPH_NanoAOD_Run2022C
p91
sg74
Vhttps://cms-service-dqmdc.web.cern.ch/CAF/certification/Collisions22/Cert_Collisions2022_eraC_355862_357482_Golden.json
p92
sbsg24
g13
(g27
g15
Ntp93
Rp94
(dp95
g31
g4
sg32
g24
sg33
g34
((lp96
VstorageSite
p97
atp98
Rp99
sg42
(dp100
sg44
g34
((lp101
tp102
Rp103
sg48
Nsg49
I00
sg97
VT3_CH_CERNBOX
p104
sbsg25
g13
(g27
g15
Ntp105
Rp106
(dp107
g31
g4
sg32
g25
sg33
g34
((lp108
tp109
Rp110
sg42
(dp111
sg44
g34
((lp112
tp113
Rp114
sg48
Nsg49
I00
sbsg26
g13
(g27
g15
Ntp115
Rp116
(dp117
g31
g4
sg32
g26
sg33
g34
((lp118
tp119
Rp120
sg42
(dp121
sg44
g34
((lp122
tp123
Rp124
sg48
Nsg49
I00
sbsbs.